target datalayout = "e-m:e-p270:32:32-p271:32:32-p272:64:64-i64:64-i128:128-f80:128-n8:16:32:64-S128"
target triple = "x86_64-pc-linux-gnu"

%struct.expert_field = type { i32, i32 }
%struct._xmpp_attr_info = type { ptr, ptr, i8, i8, ptr, ptr }
%struct._packet_info = type { ptr, ptr, i32, i32, %struct.nstime_t, %struct.nstime_t, %struct.nstime_t, i8, ptr, ptr, ptr, ptr, %struct._address, %struct._address, %struct._address, %struct._address, %struct._address, %struct._address, i32, ptr, i8, [3 x i8], %struct.anon, i32, i32, i32, i32, ptr, i8, ptr, ptr, i16, i16, i32, i32, i16, i32, i32, ptr, ptr, ptr, i8, i8, i16, i16, i16, i32, i16, i16, ptr, ptr, ptr, ptr, ptr, i32, i32 }
%struct.nstime_t = type { i64, i32 }
%struct._address = type { i32, i32, ptr, ptr }
%struct.anon = type { i8, [3 x i8] }
%struct._xmpp_element_t = type { ptr, ptr, ptr, ptr, ptr, ptr, i32, i32, i8 }
%struct._xmpp_data_t = type { ptr, i32, i32 }

@.str.5 = private unnamed_addr constant [6 x i8] c"xmlns\00", align 1
@.str.49 = private unnamed_addr constant [1 x i8] zeroinitializer, align 1
@.str.88 = private unnamed_addr constant [10 x i8] c"condition\00", align 1
@.str.102 = private unnamed_addr constant [5 x i8] c"text\00", align 1
@.str.119 = private unnamed_addr constant [13 x i8] c"Stanza error\00", align 1
@hf_xmpp_error = external global i32, align 4
@ett_xmpp_query_item = external global i32, align 4
@.str.120 = private unnamed_addr constant [36 x i8] c"urn:ietf:params:xml:ns:xmpp-stanzas\00", align 1
@.str.121 = private unnamed_addr constant [8 x i8] c"%s: %s;\00", align 1
@.str.122 = private unnamed_addr constant [12 x i8] c"%s Text: %s\00", align 1
@ei_xmpp_response = external global %struct.expert_field, align 4
@.str.123 = private unnamed_addr constant [3 x i8] c"%s\00", align 1
@hf_xmpp_error_text = external global i32, align 4

; Function Attrs: null_pointer_is_valid sspstrong uwtable
define internal void @xmpp_error_text(ptr noundef %0, ptr noundef %1, ptr noundef %2) #0 {
  %4 = alloca ptr, align 8
  %5 = alloca ptr, align 8
  %6 = alloca ptr, align 8
  store ptr %0, ptr %4, align 8
  store ptr %1, ptr %5, align 8
  store ptr %2, ptr %6, align 8
  %7 = load ptr, ptr %4, align 8
  %8 = load i32, ptr @hf_xmpp_error_text, align 4
  %9 = load ptr, ptr %5, align 8
  %10 = load ptr, ptr %6, align 8
  %11 = getelementptr inbounds nuw %struct._xmpp_element_t, ptr %10, i32 0, i32 6
  %12 = load i32, ptr %11, align 8
  %13 = load ptr, ptr %6, align 8
  %14 = getelementptr inbounds nuw %struct._xmpp_element_t, ptr %13, i32 0, i32 7
  %15 = load i32, ptr %14, align 4
  %16 = load ptr, ptr %6, align 8
  %17 = getelementptr inbounds nuw %struct._xmpp_element_t, ptr %16, i32 0, i32 5
  %18 = load ptr, ptr %17, align 8
  %19 = icmp ne ptr %18, null
  br i1 %19, label %20, label %26

20:                                               ; preds = %3
  %21 = load ptr, ptr %6, align 8
  %22 = getelementptr inbounds nuw %struct._xmpp_element_t, ptr %21, i32 0, i32 5
  %23 = load ptr, ptr %22, align 8
  %24 = getelementptr inbounds nuw %struct._xmpp_data_t, ptr %23, i32 0, i32 0
  %25 = load ptr, ptr %24, align 8
  br label %27

26:                                               ; preds = %3
  br label %27

27:                                               ; preds = %26, %20
  %28 = phi ptr [ %25, %20 ], [ @.str.49, %26 ]
  %29 = call ptr @proto_tree_add_string(ptr noundef %7, i32 noundef %8, ptr noundef %9, i32 noundef %12, i32 noundef %15, ptr noundef %28)
  ret void
}

; Function Attrs: null_pointer_is_valid sspstrong uwtable
define internal void @xmpp_error(ptr noundef %0, ptr noundef %1, ptr noundef %2, ptr noundef %3) #0 {
  %5 = alloca ptr, align 8
  %6 = alloca ptr, align 8
  %7 = alloca ptr, align 8
  %8 = alloca ptr, align 8
  %9 = alloca ptr, align 8
  %10 = alloca ptr, align 8
  %11 = alloca ptr, align 8
  %12 = alloca ptr, align 8
  %13 = alloca [3 x %struct._xmpp_attr_info], align 16
  %14 = alloca ptr, align 8
  %15 = alloca ptr, align 8
  store ptr %0, ptr %5, align 8
  store ptr %1, ptr %6, align 8
  store ptr %2, ptr %7, align 8
  store ptr %3, ptr %8, align 8
  call void @llvm.lifetime.start.p0(i64 8, ptr %9) #6
  call void @llvm.lifetime.start.p0(i64 8, ptr %10) #6
  call void @llvm.lifetime.start.p0(i64 8, ptr %11) #6
  call void @llvm.lifetime.start.p0(i64 8, ptr %12) #6
  call void @llvm.lifetime.start.p0(i64 120, ptr %13) #6
  call void @llvm.memcpy.p0.p0.i64(ptr align 16 %13, ptr align 16 @__const.xmpp_error.attrs_info, i64 120, i1 false)
  call void @llvm.lifetime.start.p0(i64 8, ptr %14) #6
  call void @llvm.lifetime.start.p0(i64 8, ptr %15) #6
  store ptr null, ptr %15, align 8
  %16 = load ptr, ptr %7, align 8
  %17 = getelementptr inbounds nuw %struct._packet_info, ptr %16, i32 0, i32 51
  %18 = load ptr, ptr %17, align 8
  %19 = call noalias ptr @wmem_strdup(ptr noundef %18, ptr noundef @.str.119)
  store ptr %19, ptr %14, align 8
  %20 = load ptr, ptr %5, align 8
  %21 = load i32, ptr @hf_xmpp_error, align 4
  %22 = load ptr, ptr %6, align 8
  %23 = load ptr, ptr %8, align 8
  %24 = getelementptr inbounds nuw %struct._xmpp_element_t, ptr %23, i32 0, i32 6
  %25 = load i32, ptr %24, align 8
  %26 = load ptr, ptr %8, align 8
  %27 = getelementptr inbounds nuw %struct._xmpp_element_t, ptr %26, i32 0, i32 7
  %28 = load i32, ptr %27, align 4
  %29 = call ptr @proto_tree_add_item(ptr noundef %20, i32 noundef %21, ptr noundef %22, i32 noundef %25, i32 noundef %28, i32 noundef 0)
  store ptr %29, ptr %9, align 8
  %30 = load ptr, ptr %9, align 8
  %31 = load i32, ptr @ett_xmpp_query_item, align 4
  %32 = call ptr @proto_item_add_subtree(ptr noundef %30, i32 noundef %31)
  store ptr %32, ptr %10, align 8
  %33 = load ptr, ptr %8, align 8
  %34 = call ptr @xmpp_steal_element_by_attr(ptr noundef %33, ptr noundef @.str.5, ptr noundef @.str.120)
  store ptr %34, ptr %12, align 8
  %35 = load ptr, ptr %12, align 8
  %36 = icmp ne ptr %35, null
  br i1 %36, label %37, label %64

37:                                               ; preds = %4
  %38 = load ptr, ptr %7, align 8
  %39 = getelementptr inbounds nuw %struct._packet_info, ptr %38, i32 0, i32 51
  %40 = load ptr, ptr %39, align 8
  %41 = load ptr, ptr %12, align 8
  %42 = getelementptr inbounds nuw %struct._xmpp_element_t, ptr %41, i32 0, i32 0
  %43 = load ptr, ptr %42, align 8
  %44 = load ptr, ptr %12, align 8
  %45 = getelementptr inbounds nuw %struct._xmpp_element_t, ptr %44, i32 0, i32 6
  %46 = load i32, ptr %45, align 8
  %47 = load ptr, ptr %12, align 8
  %48 = getelementptr inbounds nuw %struct._xmpp_element_t, ptr %47, i32 0, i32 7
  %49 = load i32, ptr %48, align 4
  %50 = call ptr @xmpp_ep_init_attr_t(ptr noundef %40, ptr noundef %43, i32 noundef %46, i32 noundef %49)
  store ptr %50, ptr %15, align 8
  %51 = load ptr, ptr %8, align 8
  %52 = getelementptr inbounds nuw %struct._xmpp_element_t, ptr %51, i32 0, i32 3
  %53 = load ptr, ptr %52, align 8
  %54 = load ptr, ptr %15, align 8
  %55 = call i32 @g_hash_table_insert(ptr noundef %53, ptr noundef @.str.88, ptr noundef %54)
  %56 = load ptr, ptr %7, align 8
  %57 = getelementptr inbounds nuw %struct._packet_info, ptr %56, i32 0, i32 51
  %58 = load ptr, ptr %57, align 8
  %59 = load ptr, ptr %14, align 8
  %60 = load ptr, ptr %12, align 8
  %61 = getelementptr inbounds nuw %struct._xmpp_element_t, ptr %60, i32 0, i32 0
  %62 = load ptr, ptr %61, align 8
  %63 = call noalias ptr (ptr, ptr, ...) @wmem_strdup_printf(ptr noundef %58, ptr noundef @.str.121, ptr noundef %59, ptr noundef %62)
  store ptr %63, ptr %14, align 8
  br label %64

64:                                               ; preds = %37, %4
  %65 = load ptr, ptr %10, align 8
  %66 = load ptr, ptr %8, align 8
  %67 = load ptr, ptr %7, align 8
  %68 = load ptr, ptr %6, align 8
  %69 = getelementptr inbounds [3 x %struct._xmpp_attr_info], ptr %13, i64 0, i64 0
  call void @xmpp_display_attrs(ptr noundef %65, ptr noundef %66, ptr noundef %67, ptr noundef %68, ptr noundef %69, i32 noundef 3)
  br label %70

70:                                               ; preds = %93, %64
  %71 = load ptr, ptr %8, align 8
  %72 = call ptr @xmpp_steal_element_by_name(ptr noundef %71, ptr noundef @.str.102)
  store ptr %72, ptr %11, align 8
  %73 = icmp ne ptr %72, null
  br i1 %73, label %74, label %96

74:                                               ; preds = %70
  %75 = load ptr, ptr %10, align 8
  %76 = load ptr, ptr %6, align 8
  %77 = load ptr, ptr %11, align 8
  call void @xmpp_error_text(ptr noundef %75, ptr noundef %76, ptr noundef %77)
  %78 = load ptr, ptr %7, align 8
  %79 = getelementptr inbounds nuw %struct._packet_info, ptr %78, i32 0, i32 51
  %80 = load ptr, ptr %79, align 8
  %81 = load ptr, ptr %14, align 8
  %82 = load ptr, ptr %11, align 8
  %83 = getelementptr inbounds nuw %struct._xmpp_element_t, ptr %82, i32 0, i32 5
  %84 = load ptr, ptr %83, align 8
  %85 = icmp ne ptr %84, null
  br i1 %85, label %86, label %92

86:                                               ; preds = %74
  %87 = load ptr, ptr %11, align 8
  %88 = getelementptr inbounds nuw %struct._xmpp_element_t, ptr %87, i32 0, i32 5
  %89 = load ptr, ptr %88, align 8
  %90 = getelementptr inbounds nuw %struct._xmpp_data_t, ptr %89, i32 0, i32 0
  %91 = load ptr, ptr %90, align 8
  br label %93

92:                                               ; preds = %74
  br label %93

93:                                               ; preds = %92, %86
  %94 = phi ptr [ %91, %86 ], [ @.str.49, %92 ]
  %95 = call noalias ptr (ptr, ptr, ...) @wmem_strdup_printf(ptr noundef %80, ptr noundef @.str.122, ptr noundef %81, ptr noundef %94)
  store ptr %95, ptr %14, align 8
  br label %70, !llvm.loop !6

96:                                               ; preds = %70
  %97 = load ptr, ptr %7, align 8
  %98 = load ptr, ptr %9, align 8
  %99 = load ptr, ptr %14, align 8
  %100 = call ptr (ptr, ptr, ptr, ptr, ...) @expert_add_info_format(ptr noundef %97, ptr noundef %98, ptr noundef @ei_xmpp_response, ptr noundef @.str.123, ptr noundef %99)
  %101 = load ptr, ptr %10, align 8
  %102 = load ptr, ptr %6, align 8
  %103 = load ptr, ptr %7, align 8
  %104 = load ptr, ptr %8, align 8
  call void @xmpp_unknown(ptr noundef %101, ptr noundef %102, ptr noundef %103, ptr noundef %104)
  call void @llvm.lifetime.end.p0(i64 8, ptr %15) #6
  call void @llvm.lifetime.end.p0(i64 8, ptr %14) #6
  call void @llvm.lifetime.end.p0(i64 120, ptr %13) #6
  call void @llvm.lifetime.end.p0(i64 8, ptr %12) #6
  call void @llvm.lifetime.end.p0(i64 8, ptr %11) #6
  call void @llvm.lifetime.end.p0(i64 8, ptr %10) #6
  call void @llvm.lifetime.end.p0(i64 8, ptr %9) #6
  ret void
}