; Function Attrs: null_pointer_is_valid sspstrong uwtable
define internal void @xmpp_error(ptr noundef %0, ptr noundef %1, ptr noundef %2, ptr noundef %3) #0 {
  %5 = alloca [3 x %struct._xmpp_attr_info], align 16
  call void @llvm.lifetime.start.p0(i64 120, ptr nonnull %5) #5
  call void @llvm.memcpy.p0.p0.i64(ptr noundef nonnull align 16 dereferenceable(120) %5, ptr noundef nonnull align 16 dereferenceable(120) @__const.xmpp_error.attrs_info, i64 120, i1 false)
  %6 = getelementptr inbounds nuw i8, ptr %2, i64 408
  %7 = load ptr, ptr %6, align 8
  %8 = tail call noalias ptr @wmem_strdup(ptr noundef %7, ptr noundef nonnull @.str.119)
  %9 = load i32, ptr @hf_xmpp_error, align 4
  %10 = getelementptr inbounds nuw i8, ptr %3, i64 48
  %11 = load i32, ptr %10, align 8
  %12 = getelementptr inbounds nuw i8, ptr %3, i64 52
  %13 = load i32, ptr %12, align 4
  %14 = tail call ptr @proto_tree_add_item(ptr noundef %0, i32 noundef %9, ptr noundef %1, i32 noundef %11, i32 noundef %13, i32 noundef 0)
  %15 = load i32, ptr @ett_xmpp_query_item, align 4
  %16 = tail call ptr @proto_item_add_subtree(ptr noundef %14, i32 noundef %15)
  %17 = tail call ptr @xmpp_steal_element_by_attr(ptr noundef %3, ptr noundef nonnull @.str.5, ptr noundef nonnull @.str.120)
  %.not = icmp eq ptr %17, null
  br i1 %.not, label %32, label %18

18:                                               ; preds = %4
  %19 = load ptr, ptr %6, align 8
  %20 = load ptr, ptr %17, align 8
  %21 = getelementptr inbounds nuw i8, ptr %17, i64 48
  %22 = load i32, ptr %21, align 8
  %23 = getelementptr inbounds nuw i8, ptr %17, i64 52
  %24 = load i32, ptr %23, align 4
  %25 = tail call ptr @xmpp_ep_init_attr_t(ptr noundef %19, ptr noundef %20, i32 noundef %22, i32 noundef %24)
  %26 = getelementptr inbounds nuw i8, ptr %3, i64 24
  %27 = load ptr, ptr %26, align 8
  %28 = tail call i32 @g_hash_table_insert(ptr noundef %27, ptr noundef nonnull @.str.88, ptr noundef %25)
  %29 = load ptr, ptr %6, align 8
  %30 = load ptr, ptr %17, align 8
  %31 = tail call noalias ptr (ptr, ptr, ...) @wmem_strdup_printf(ptr noundef %29, ptr noundef nonnull @.str.121, ptr noundef %8, ptr noundef %30)
  br label %32

32:                                               ; preds = %18, %4
  %.0 = phi ptr [ %31, %18 ], [ %8, %4 ]
  call void @xmpp_display_attrs(ptr noundef %16, ptr noundef %3, ptr noundef %2, ptr noundef %1, ptr noundef nonnull %5, i32 noundef 3)
  %33 = call ptr @xmpp_steal_element_by_name(ptr noundef %3, ptr noundef nonnull @.str.102)
  %.not3941 = icmp eq ptr %33, null
  br i1 %.not3941, label %._crit_edge, label %.lr.ph

.lr.ph:                                           ; preds = %32, %50
  %34 = phi ptr [ %53, %50 ], [ %33, %32 ]
  %.142 = phi ptr [ %52, %50 ], [ %.0, %32 ]
  %35 = load i32, ptr @hf_xmpp_error_text, align 4
  %36 = getelementptr inbounds nuw i8, ptr %34, i64 48
  %37 = load i32, ptr %36, align 8
  %38 = getelementptr inbounds nuw i8, ptr %34, i64 52
  %39 = load i32, ptr %38, align 4
  %40 = getelementptr inbounds nuw i8, ptr %34, i64 40
  %41 = load ptr, ptr %40, align 8
  %.not.i = icmp eq ptr %41, null
  br i1 %.not.i, label %xmpp_error_text.exit, label %42

42:                                               ; preds = %.lr.ph
  %43 = load ptr, ptr %41, align 8
  br label %xmpp_error_text.exit

xmpp_error_text.exit:                             ; preds = %.lr.ph, %42
  %44 = phi ptr [ %43, %42 ], [ @.str.49, %.lr.ph ]
  %45 = call ptr @proto_tree_add_string(ptr noundef %16, i32 noundef %35, ptr noundef %1, i32 noundef %37, i32 noundef %39, ptr noundef %44)
  %46 = load ptr, ptr %6, align 8
  %47 = load ptr, ptr %40, align 8
  %.not40 = icmp eq ptr %47, null
  br i1 %.not40, label %50, label %48

48:                                               ; preds = %xmpp_error_text.exit
  %49 = load ptr, ptr %47, align 8
  br label %50

50:                                               ; preds = %xmpp_error_text.exit, %48
  %51 = phi ptr [ %49, %48 ], [ @.str.49, %xmpp_error_text.exit ]
  %52 = call noalias ptr (ptr, ptr, ...) @wmem_strdup_printf(ptr noundef %46, ptr noundef nonnull @.str.122, ptr noundef %.142, ptr noundef %51)
  %53 = call ptr @xmpp_steal_element_by_name(ptr noundef %3, ptr noundef nonnull @.str.102)
  %.not39 = icmp eq ptr %53, null
  br i1 %.not39, label %._crit_edge, label %.lr.ph, !llvm.loop !6

._crit_edge:                                      ; preds = %50, %32
  %.1.lcssa = phi ptr [ %.0, %32 ], [ %52, %50 ]
  %54 = call ptr (ptr, ptr, ptr, ptr, ...) @expert_add_info_format(ptr noundef %2, ptr noundef %14, ptr noundef nonnull @ei_xmpp_response, ptr noundef nonnull @.str.123, ptr noundef %.1.lcssa)
  call void @xmpp_unknown(ptr noundef %16, ptr noundef %1, ptr noundef %2, ptr noundef %3)
  call void @llvm.lifetime.end.p0(i64 120, ptr nonnull %5) #5
  ret void
}